Certificate:
    Data:
        Version: 3 (0x2)
        Serial Number: 1 (0x1)
    Signature Algorithm: sha1WithRSAEncryption
        Issuer: C=US, ST=California, L=Palo Alto, O=AT&T, OU=Foundry, CN=*
        Validity
            Not Before: Sep 16 19:08:47 2014 GMT
            Not After : Sep 13 19:08:47 2024 GMT
        Subject: C=US, ST=California, O=AT&T, OU=Foundry, CN=*
        Subject Public Key Info:
            Public Key Algorithm: rsaEncryption
                Public-Key: (2048 bit)
                Modulus:
                    00:eb:43:74:40:20:b4:86:27:75:b9:40:b6:fc:22:
                    65:82:cf:e3:a7:81:39:19:aa:fd:1a:95:2a:07:7f:
                    d1:bc:8b:a8:1a:a1:f8:bc:4a:29:6d:11:dd:44:e1:
                    e3:8f:4d:2b:9d:8a:fb:3e:12:c5:eb:2e:a2:01:03:
                    88:dc:4a:6c:54:d6:a4:a8:15:75:26:d5:67:4e:e7:
                    2e:97:28:c4:bf:89:c2:56:e7:29:3a:1f:82:6d:cc:
                    e5:1d:9d:12:11:2f:32:b6:0b:8e:02:24:41:c0:0c:
                    46:6c:ec:5a:95:77:76:12:34:06:ae:5e:a2:69:f2:
                    2d:61:bf:8c:b2:ce:34:6e:a0:04:63:2b:2f:67:c2:
                    4c:d9:60:e4:0d:3e:6c:a2:86:38:ee:a5:b1:32:3f:
                    aa:72:4f:38:8b:ef:4f:82:ec:ff:69:1a:81:f7:d9:
                    02:96:e3:de:f3:f9:66:92:a5:b5:05:a2:cd:b8:8a:
                    fe:cc:88:ad:7a:37:4f:18:cc:cb:3a:23:88:6f:4a:
                    91:ac:54:54:33:7e:40:23:89:e0:7f:ca:e0:f6:a9:
                    51:2e:63:52:ec:b8:f6:72:ac:65:a7:9a:e6:31:5f:
                    0c:46:a8:90:e8:b4:18:c5:98:d1:4b:2b:49:17:7a:
                    d2:7c:88:7b:13:9b:ac:42:80:80:96:20:99:3f:30:
                    17:8d
                Exponent: 65537 (0x10001)
        X509v3 extensions:
            X509v3 Basic Constraints: 
                CA:FALSE
            Netscape Cert Type: 
                SSL Server
            Netscape Comment: 
                OpenSSL Generated Server Certificate
            X509v3 Subject Key Identifier: 
                82:CD:9C:F0:6A:57:F4:0B:5C:A7:2B:91:46:0D:8B:3D:35:48:5B:89
            X509v3 Authority Key Identifier: 
                keyid:48:49:64:1A:1A:6E:31:BD:A6:87:F8:EF:CE:AB:03:7F:04:05:4B:F2
                DirName:/C=US/ST=California/L=Palo Alto/O=AT&T/OU=Foundry/CN=*
                serial:83:1B:61:E7:10:20:51:C8

            X509v3 Extended Key Usage: 
                TLS Web Server Authentication
            X509v3 Key Usage: 
                Digital Signature, Key Encipherment
            X509v3 Subject Alternative Name: 
                DNS:dock1.zone1.example.com, DNS:dock2.zone1.example.com, DNS:dock3.zone1.example.com, DNS:dock4.zone1.example.com
    Signature Algorithm: sha1WithRSAEncryption
         c7:8f:9f:fc:20:6b:3b:5d:71:2e:e7:a7:ba:b9:0d:b5:5e:30:
         b5:40:a7:df:9e:fd:de:f9:01:58:0c:6f:2e:4a:62:75:74:52:
         d5:9e:6a:d7:12:c2:d8:dc:a5:f3:5f:f2:0c:e9:8b:f1:03:24:
         9f:6f:54:ce:8b:25:3d:b7:b3:01:d0:50:b0:34:75:19:d8:6a:
         a9:85:6b:21:31:60:11:a9:ff:ff:91:1b:1e:e2:26:7c:bf:4b:
         e0:fe:ca:67:71:69:3d:92:59:b9:65:bd:13:b8:5f:85:de:da:
         a2:78:2d:0a:90:c5:1d:c0:e8:6b:9e:5f:4d:0f:1f:ec:c3:f2:
         ca:e7:4b:b4:7b:2b:e5:8a:c0:2d:7b:3e:e4:7e:2d:e0:48:67:
         87:ee:89:3c:e1:9d:c7:c4:02:aa:fa:85:e6:dd:45:8b:88:0b:
         c1:41:68:76:0e:d5:7e:2a:af:70:49:eb:aa:5f:b6:62:30:c0:
         85:a8:29:fa:04:55:b9:ee:08:ec:bd:e4:36:8f:6c:3c:6f:c0:
         b0:6c:dc:76:68:46:b7:88:b2:60:8a:bd:18:38:53:90:1c:0e:
         50:f9:40:be:03:e3:fb:36:a7:57:6f:19:74:d0:06:b5:0b:95:
         f8:42:69:cf:06:e3:ec:93:7d:6a:08:50:6f:39:e5:70:d0:8e:
         fd:67:f8:80
-----BEGIN CERTIFICATE-----
MIIEzjCCA7agAwIBAgIBATANBgkqhkiG9w0BAQUFADBjMQswCQYDVQQGEwJVUzET
MBEGA1UECAwKQ2FsaWZvcm5pYTESMBAGA1UEBwwJUGFsbyBBbHRvMQ0wCwYDVQQK
DARBVCZUMRAwDgYDVQQLDAdGb3VuZHJ5MQowCAYDVQQDDAEqMB4XDTE0MDkxNjE5
MDg0N1oXDTI0MDkxMzE5MDg0N1owTzELMAkGA1UEBhMCVVMxEzARBgNVBAgMCkNh
bGlmb3JuaWExDTALBgNVBAoMBEFUJlQxEDAOBgNVBAsMB0ZvdW5kcnkxCjAIBgNV
BAMMASowggEiMA0GCSqGSIb3DQEBAQUAA4IBDwAwggEKAoIBAQDrQ3RAILSGJ3W5
QLb8ImWCz+OngTkZqv0alSoHf9G8i6gaofi8SiltEd1E4eOPTSudivs+EsXrLqIB
A4jcSmxU1qSoFXUm1WdO5y6XKMS/icJW5yk6H4JtzOUdnRIRLzK2C44CJEHADEZs
7FqVd3YSNAauXqJp8i1hv4yyzjRuoARjKy9nwkzZYOQNPmyihjjupbEyP6pyTziL
70+C7P9pGoH32QKW497z+WaSpbUFos24iv7MiK16N08YzMs6I4hvSpGsVFQzfkAj
ieB/yuD2qVEuY1LsuPZyrGWnmuYxXwxGqJDotBjFmNFLK0kXetJ8iHsTm6xCgICW
IJk/MBeNAgMBAAGjggGfMIIBmzAJBgNVHRMEAjAAMBEGCWCGSAGG+EIBAQQEAwIG
QDAzBglghkgBhvhCAQ0EJhYkT3BlblNTTCBHZW5lcmF0ZWQgU2VydmVyIENlcnRp
ZmljYXRlMB0GA1UdDgQWBBSCzZzwalf0C1ynK5FGDYs9NUhbiTCBlQYDVR0jBIGN
MIGKgBRISWQaGm4xvaaH+O/OqwN/BAVL8qFnpGUwYzELMAkGA1UEBhMCVVMxEzAR
BgNVBAgMCkNhbGlmb3JuaWExEjAQBgNVBAcMCVBhbG8gQWx0bzENMAsGA1UECgwE
QVQmVDEQMA4GA1UECwwHRm91bmRyeTEKMAgGA1UEAwwBKoIJAIMbYecQIFHIMBMG
A1UdJQQMMAoGCCsGAQUFBwMBMAsGA1UdDwQEAwIFoDBtBgNVHREEZjBkghdkb2Nr
MS56b25lMS5leGFtcGxlLmNvbYIXZG9jazIuem9uZTEuZXhhbXBsZS5jb22CF2Rv
Y2szLnpvbmUxLmV4YW1wbGUuY29tghdkb2NrNC56b25lMS5leGFtcGxlLmNvbTAN
BgkqhkiG9w0BAQUFAAOCAQEAx4+f/CBrO11xLuenurkNtV4wtUCn35793vkBWAxv
LkpidXRS1Z5q1xLC2Nyl81/yDOmL8QMkn29UzoslPbezAdBQsDR1GdhqqYVrITFg
Ean//5EbHuImfL9L4P7KZ3FpPZJZuWW9E7hfhd7aongtCpDFHcDoa55fTQ8f7MPy
yudLtHsr5YrALXs+5H4t4Ehnh+6JPOGdx8QCqvqF5t1Fi4gLwUFodg7VfiqvcEnr
ql+2YjDAhagp+gRVue4I7L3kNo9sPG/AsGzcdmhGt4iyYIq9GDhTkBwOUPlAvgPj
+zanV28ZdNAGtQuV+EJpzwbj7JN9aghQbznlcNCO/Wf4gA==
-----END CERTIFICATE-----
-----BEGIN RSA PRIVATE KEY-----
MIIEogIBAAKCAQEA60N0QCC0hid1uUC2/CJlgs/jp4E5Gar9GpUqB3/RvIuoGqH4
vEopbRHdROHjj00rnYr7PhLF6y6iAQOI3EpsVNakqBV1JtVnTuculyjEv4nCVucp
Oh+CbczlHZ0SES8ytguOAiRBwAxGbOxalXd2EjQGrl6iafItYb+Mss40bqAEYysv
Z8JM2WDkDT5sooY47qWxMj+qck84i+9Pguz/aRqB99kCluPe8/lmkqW1BaLNuIr+
zIitejdPGMzLOiOIb0qRrFRUM35AI4ngf8rg9qlRLmNS7Lj2cqxlp5rmMV8MRqiQ
6LQYxZjRSytJF3rSfIh7E5usQoCAliCZPzAXjQIDAQABAoIBAEvlKN1/L32PwUSQ
Aff4yLKYiiKBZ4BGTvyCXlqo+2pNy188HVfwvMh42N7d2GFkTcu3CDIQMFUcaBrX
nxEh2SzNSbUHpxFuCrPDlJ4jAsWflVgfnocnnxX44XjaMPfmN//OXnOGasefriB5
ZweM0EQzEGy0DsUK4WUFPEh6iSOeUTR9kk2VSzAYXezZeK6Gf5nPCD3+deKrNPft
WnwqoytYVYgJmEh3WpWI7k5UeW+2qoMvbz4fWYI0/QYWNXX9olETq3y7rNfCOaTy
/mqXkI1jUfZH7S9w5uksoWg8Yi+DFQMI8wFZxw4N7px8qHdI1APvLqyfDZ7IDcnR
uKWbSSkCgYEA9j542DrH/8yIlN/Q50zstV1rgBSEK5S3bEG2fYX6vCqEhIT9itRV
scejWMu31loBy2aBGFTVTVWDo+EA7JWYFMFFm6aM6WJNsxe9eAnJUP3UwMpy8R0g
eOH/THXllPwCD/f2hQkHfe41ou20wxndc13zieECqJx3Ek+AJcOlmOcCgYEA9JWc
rkVejQPj1iALAs3ASL1wtEOZfv9KQkle1hYqxPnpdMMl2/IfUlX4rJo2+/7D7XJx
IgwYtGyxjAmTNPmCdqyRBsanpkDFAnYIFj+jg14Vf4pAf8BD3xAKOxBEUI5MMlvY
jR4GJ7b/QL2pnDLUFjE27HQVlaf0NahZXjQseWsCgYANoLl5Zg9phb1NV/Gsy2IS
S4BGj1wdOVbJY/2ghsiwnz3EQ8Pwaf3wH9dXc7bR4xtUUXD1ksRXSlNFv48YiNLo
2yVqDtafl/Qq5DZ1LT16AQJERTAFThJc/kztw1yYWTYYAiYfiLdkbcmEIdmuLoFG
AD4ZNF28TSR92+6AqIpCowKBgGI66FdxktzN0CaCbgmtOum789TiRXak710Z/JW9
B2Ze/K0hZ0YjwwKddqdTtHuWwXfO+7Lx6sYj1VbpzY58GzKwcfqntFNoNfecEfll
i7VKBxZXHzpvrJKc7Y71JIq5685Z5uoeQdiXfYKx6bnLDDTxhR6ILNcTQlh+iY31
JFuLAoGAFYhHfniT17suhPaP+N0Pd7IDY7DpKvvaEO4v0ZcKKWzL7a7XpCVJyNGg
jLg+Npc0WLOJB/xGEVf6r4NdIl4TjBKAdfyeYrz+l3qKAkHVhoJ+7npcbfFn8Dkf
rGIhhK6ccyOYhhz4bjBRSe59Dy4UUFiYNAPhO9ZUtTjIlWzZ+cQ=
-----END RSA PRIVATE KEY-----

